target datalayout = "e-m:e-p270:32:32-p271:32:32-p272:64:64-i64:64-i128:128-f80:128-n8:16:32:64-S128"
target triple = "x86_64-pc-linux-gnu"

%"class.llvm::codeview::TypeIndex" = type { %"struct.llvm::support::detail::packed_endian_specific_integral" }
%"struct.llvm::support::detail::packed_endian_specific_integral" = type { %struct.anon }
%struct.anon = type { [4 x i8] }
%"class.llvm::codeview::TypeRecord" = type { i16 }
%"class.llvm::pdb::NativeTypeFunctionSig" = type <{ %"class.llvm::pdb::NativeRawSymbol", %union.anon, i32, %"class.llvm::codeview::TypeIndex", [4 x i8], %"class.llvm::codeview::ArgListRecord", i8, [7 x i8] }>
%"class.llvm::pdb::NativeRawSymbol" = type { %"class.llvm::pdb::IPDBRawSymbol", ptr, i32, i32 }
%"class.llvm::pdb::IPDBRawSymbol" = type { ptr }
%union.anon = type { %"class.llvm::codeview::MemberFunctionRecord" }
%"class.llvm::codeview::MemberFunctionRecord" = type { %"class.llvm::codeview::TypeRecord", %"class.llvm::codeview::TypeIndex", %"class.llvm::codeview::TypeIndex", %"class.llvm::codeview::TypeIndex", i8, i8, i16, %"class.llvm::codeview::TypeIndex", i32 }
%"class.llvm::codeview::ArgListRecord" = type { %"class.llvm::codeview::TypeRecord", %"class.std::vector" }
%"class.std::vector" = type { %"struct.std::_Vector_base" }
%"struct.std::_Vector_base" = type { %"struct.std::_Vector_base<llvm::codeview::TypeIndex, std::allocator<llvm::codeview::TypeIndex>>::_Vector_impl" }
%"struct.std::_Vector_base<llvm::codeview::TypeIndex, std::allocator<llvm::codeview::TypeIndex>>::_Vector_impl" = type { %"struct.std::_Vector_base<llvm::codeview::TypeIndex, std::allocator<llvm::codeview::TypeIndex>>::_Vector_impl_data" }
%"struct.std::_Vector_base<llvm::codeview::TypeIndex, std::allocator<llvm::codeview::TypeIndex>>::_Vector_impl_data" = type { ptr, ptr, ptr }

; Function Attrs: mustprogress nounwind uwtable
define dso_local noundef i32 @_ZNK4llvm3pdb21NativeTypeFunctionSig16getClassParentIdEv(ptr noundef nonnull align 8 dereferenceable(97) %0) unnamed_addr #0 align 2 {
  %2 = alloca i32, align 4
  %3 = alloca ptr, align 8
  store ptr %0, ptr %3, align 8
  %4 = load ptr, ptr %3, align 8
  %5 = getelementptr inbounds nuw %"class.llvm::pdb::NativeTypeFunctionSig", ptr %4, i32 0, i32 6
  %6 = load i8, ptr %5, align 8
  %7 = trunc i8 %6 to i1
  br i1 %7, label %9, label %8

8:                                                ; preds = %1
  store i32 0, ptr %2, align 4
  br label %12

9:                                                ; preds = %1
  %10 = getelementptr inbounds nuw %"class.llvm::pdb::NativeTypeFunctionSig", ptr %4, i32 0, i32 2
  %11 = load i32, ptr %10, align 4
  store i32 %11, ptr %2, align 4
  br label %12

12:                                               ; preds = %9, %8
  %13 = load i32, ptr %2, align 4
  ret i32 %13
}