; Function Attrs: mustprogress nofree norecurse nosync nounwind willreturn memory(argmem: read) uwtable
define dso_local noundef i32 @_ZNK4llvm3pdb21NativeTypeFunctionSig16getClassParentIdEv(ptr nocapture noundef nonnull readonly align 8 dereferenceable(97) %0) unnamed_addr #5 align 2 {
  %2 = getelementptr inbounds nuw i8, ptr %0, i64 96
  %3 = load i8, ptr %2, align 8
  %4 = trunc i8 %3 to i1
  %5 = getelementptr inbounds nuw i8, ptr %0, i64 52
  %6 = load i32, ptr %5, align 4
  %.0 = select i1 %4, i32 %6, i32 0
  ret i32 %.0
}